target datalayout = "e-m:e-p270:32:32-p271:32:32-p272:64:64-i64:64-i128:128-f80:128-n8:16:32:64-S128"
target triple = "x86_64-pc-linux-gnu"

@.str.20 = private unnamed_addr constant [8 x i8] c"%.0f\E2\80\B3\00", align 1
@.str.21 = private unnamed_addr constant [8 x i8] c"%.1f\E2\80\B3\00", align 1
@.str.22 = private unnamed_addr constant [7 x i8] c"1/%.0f\00", align 1
@.str.23 = private unnamed_addr constant [7 x i8] c"1/%.1f\00", align 1

; Function Attrs: nounwind uwtable
define ptr @dt_util_format_exposure(float noundef %0) #0 {
  %2 = alloca float, align 4
  %3 = alloca ptr, align 8
  store float %0, ptr %2, align 4, !tbaa !45
  call void @llvm.lifetime.start.p0(i64 8, ptr %3) #18
  store ptr null, ptr %3, align 8, !tbaa !6
  %4 = load float, ptr %2, align 4, !tbaa !45
  %5 = fcmp reassoc nsz arcp contract afn oge float %4, 1.000000e+00
  br i1 %5, label %6, label %20

6:                                                ; preds = %1
  %7 = load float, ptr %2, align 4, !tbaa !45
  %8 = call reassoc nsz arcp contract afn float @llvm.nearbyint.f32(float %7)
  %9 = load float, ptr %2, align 4, !tbaa !45
  %10 = fcmp reassoc nsz arcp contract afn oeq float %8, %9
  br i1 %10, label %11, label %15

11:                                               ; preds = %6
  %12 = load float, ptr %2, align 4, !tbaa !45
  %13 = fpext reassoc nsz arcp contract afn float %12 to double
  %14 = call noalias ptr (ptr, ...) @g_strdup_printf(ptr noundef @.str.20, double noundef %13)
  store ptr %14, ptr %3, align 8, !tbaa !6
  br label %19

15:                                               ; preds = %6
  %16 = load float, ptr %2, align 4, !tbaa !45
  %17 = fpext reassoc nsz arcp contract afn float %16 to double
  %18 = call noalias ptr (ptr, ...) @g_strdup_printf(ptr noundef @.str.21, double noundef %17)
  store ptr %18, ptr %3, align 8, !tbaa !6
  br label %19

19:                                               ; preds = %15, %11
  br label %61

20:                                               ; preds = %1
  %21 = load float, ptr %2, align 4, !tbaa !45
  %22 = fcmp reassoc nsz arcp contract afn olt float %21, 0x3FD28F5C20000000
  br i1 %22, label %23, label %28

23:                                               ; preds = %20
  %24 = load float, ptr %2, align 4, !tbaa !45
  %25 = fpext reassoc nsz arcp contract afn float %24 to double
  %26 = fdiv reassoc nsz arcp contract afn double 1.000000e+00, %25
  %27 = call noalias ptr (ptr, ...) @g_strdup_printf(ptr noundef @.str.22, double noundef %26)
  store ptr %27, ptr %3, align 8, !tbaa !6
  br label %60

28:                                               ; preds = %20
  %29 = load float, ptr %2, align 4, !tbaa !45
  %30 = fdiv reassoc nsz arcp contract afn float 1.000000e+00, %29
  %31 = call reassoc nsz arcp contract afn float @llvm.nearbyint.f32(float %30)
  %32 = load float, ptr %2, align 4, !tbaa !45
  %33 = fdiv reassoc nsz arcp contract afn float 1.000000e+00, %32
  %34 = fcmp reassoc nsz arcp contract afn oeq float %31, %33
  br i1 %34, label %35, label %40

35:                                               ; preds = %28
  %36 = load float, ptr %2, align 4, !tbaa !45
  %37 = fpext reassoc nsz arcp contract afn float %36 to double
  %38 = fdiv reassoc nsz arcp contract afn double 1.000000e+00, %37
  %39 = call noalias ptr (ptr, ...) @g_strdup_printf(ptr noundef @.str.22, double noundef %38)
  store ptr %39, ptr %3, align 8, !tbaa !6
  br label %59

40:                                               ; preds = %28
  %41 = load float, ptr %2, align 4, !tbaa !45
  %42 = fdiv reassoc nsz arcp contract afn float 1.000000e+01, %41
  %43 = call reassoc nsz arcp contract afn float @llvm.nearbyint.f32(float %42)
  %44 = fmul reassoc nsz arcp contract afn float 1.000000e+01, %43
  %45 = load float, ptr %2, align 4, !tbaa !45
  %46 = fdiv reassoc nsz arcp contract afn float 1.000000e+02, %45
  %47 = call reassoc nsz arcp contract afn float @llvm.nearbyint.f32(float %46)
  %48 = fcmp reassoc nsz arcp contract afn oeq float %44, %47
  br i1 %48, label %49, label %54

49:                                               ; preds = %40
  %50 = load float, ptr %2, align 4, !tbaa !45
  %51 = fpext reassoc nsz arcp contract afn float %50 to double
  %52 = fdiv reassoc nsz arcp contract afn double 1.000000e+00, %51
  %53 = call noalias ptr (ptr, ...) @g_strdup_printf(ptr noundef @.str.23, double noundef %52)
  store ptr %53, ptr %3, align 8, !tbaa !6
  br label %58

54:                                               ; preds = %40
  %55 = load float, ptr %2, align 4, !tbaa !45
  %56 = fpext reassoc nsz arcp contract afn float %55 to double
  %57 = call noalias ptr (ptr, ...) @g_strdup_printf(ptr noundef @.str.21, double noundef %56)
  store ptr %57, ptr %3, align 8, !tbaa !6
  br label %58

58:                                               ; preds = %54, %49
  br label %59

59:                                               ; preds = %58, %35
  br label %60

60:                                               ; preds = %59, %23
  br label %61

61:                                               ; preds = %60, %19
  %62 = load ptr, ptr %3, align 8, !tbaa !6
  call void @llvm.lifetime.end.p0(i64 8, ptr %3) #18
  ret ptr %62
}