; Function Attrs: nounwind uwtable
define noalias ptr @dt_util_format_exposure(float noundef %0) local_unnamed_addr #0 {
  %2 = fcmp reassoc nsz arcp contract afn ult float %0, 1.000000e+00
  br i1 %2, label %11, label %3

3:                                                ; preds = %1
  %4 = tail call reassoc nsz arcp contract afn float @llvm.nearbyint.f32(float %0)
  %5 = fcmp reassoc nsz arcp contract afn oeq float %4, %0
  %6 = fpext reassoc nsz arcp contract afn float %0 to double
  br i1 %5, label %7, label %9

7:                                                ; preds = %3
  %8 = tail call noalias ptr (ptr, ...) @g_strdup_printf(ptr noundef nonnull @.str.20, double noundef %6) #27
  br label %38

9:                                                ; preds = %3
  %10 = tail call noalias ptr (ptr, ...) @g_strdup_printf(ptr noundef nonnull @.str.21, double noundef %6) #27
  br label %38

11:                                               ; preds = %1
  %12 = fcmp reassoc nsz arcp contract afn olt float %0, 0x3FD28F5C20000000
  br i1 %12, label %13, label %17

13:                                               ; preds = %11
  %14 = fpext reassoc nsz arcp contract afn float %0 to double
  %15 = fdiv reassoc nsz arcp contract afn double 1.000000e+00, %14
  %16 = tail call noalias ptr (ptr, ...) @g_strdup_printf(ptr noundef nonnull @.str.22, double noundef %15) #27
  br label %38

17:                                               ; preds = %11
  %18 = fdiv reassoc nsz arcp contract afn float 1.000000e+00, %0
  %19 = tail call reassoc nsz arcp contract afn float @llvm.nearbyint.f32(float %18)
  %20 = fcmp reassoc nsz arcp contract afn oeq float %19, %18
  br i1 %20, label %21, label %25

21:                                               ; preds = %17
  %22 = fpext reassoc nsz arcp contract afn float %0 to double
  %23 = fdiv reassoc nsz arcp contract afn double 1.000000e+00, %22
  %24 = tail call noalias ptr (ptr, ...) @g_strdup_printf(ptr noundef nonnull @.str.22, double noundef %23) #27
  br label %38

25:                                               ; preds = %17
  %26 = fdiv reassoc nsz arcp contract afn float 1.000000e+01, %0
  %27 = tail call reassoc nsz arcp contract afn float @llvm.nearbyint.f32(float %26)
  %28 = fmul reassoc nsz arcp contract afn float %27, 1.000000e+01
  %29 = fdiv reassoc nsz arcp contract afn float 1.000000e+02, %0
  %30 = tail call reassoc nsz arcp contract afn float @llvm.nearbyint.f32(float %29)
  %31 = fcmp reassoc nsz arcp contract afn oeq float %28, %30
  %32 = fpext reassoc nsz arcp contract afn float %0 to double
  br i1 %31, label %33, label %36

33:                                               ; preds = %25
  %34 = fdiv reassoc nsz arcp contract afn double 1.000000e+00, %32
  %35 = tail call noalias ptr (ptr, ...) @g_strdup_printf(ptr noundef nonnull @.str.23, double noundef %34) #27
  br label %38

36:                                               ; preds = %25
  %37 = tail call noalias ptr (ptr, ...) @g_strdup_printf(ptr noundef nonnull @.str.21, double noundef %32) #27
  br label %38

38:                                               ; preds = %13, %33, %36, %21, %7, %9
  %.0 = phi ptr [ %8, %7 ], [ %10, %9 ], [ %16, %13 ], [ %24, %21 ], [ %35, %33 ], [ %37, %36 ]
  ret ptr %.0
}